(dp0
S'mz'
p1
(lp2
F71.037114
aF103.009185
aF115.026943
aF129.042593
aF147.068414
aF57.021464
aF137.058912
aF113.084064
aF128.094963
aF113.084064
aF131.040485
aF114.042927
aF97.052764
aF128.058578
aF156.101111
aF87.032028
aF101.047679
aF99.068414
aF186.079313
aF163.063329
asS'pI'
p3
(lp4
F600.0
aF507.0
aF277.0
aF322.0
aF548.0
aF597.0
aF759.0
aF602.0
aF974.0
aF598.0
aF574.0
aF541.0
aF630.0
aF565.0
aF1076.0
aF568.0
aF560.0
aF596.0
aF589.0
aF566.0
asS'heli'
p5
(lp6
F2064.0
aF2062.0
aF2086.0
aF2156.0
aF2121.0
aF2027.0
aF2237.0
aF2108.0
aF2218.0
aF2096.0
aF2133.0
aF2128.0
aF2144.0
aF2142.0
aF2370.0
aF2076.0
aF2117.0
aF2087.0
aF2161.0
aF2131.0
asS'bas'
p7
(lp8
F2064.0
aF2062.0
aF2086.0
aF2156.0
aF2121.0
aF2027.0
aF2237.0
aF2108.0
aF2218.0
aF2096.0
aF2133.0
aF2128.0
aF2144.0
aF2142.0
aF2370.0
aF2076.0
aF2117.0
aF2087.0
aF2161.0
aF2131.0
asS'hydro'
p9
(lp10
F516.0
aF750.0
aF250.99999999999997
aF350.0
aF1000.0
aF169.0
aF37.0
aF941.0
aF0.0
aF976.0
aF823.0
aF121.0
aF8.0
aF224.0
aF223.0
aF215.0
aF392.0
aF802.0
aF988.0
aF700.0
as.